target datalayout = "e-m:e-p270:32:32-p271:32:32-p272:64:64-i64:64-i128:128-f80:128-n8:16:32:64-S128"
target triple = "x86_64-pc-linux-gnu"

%"class.cv::saliency::MotionSaliencyBinWangApr2014" = type <{ %"class.cv::saliency::MotionSaliency.base", %"class.std::vector", %"class.cv::Mat", %"class.cv::Mat", %"class.cv::Mat", %"class.cv::Mat", i8, i8, [2 x i8], i32, i32, i32, i32, i32, float, i32, i32, i32, i32, i32, i8, [3 x i8], i32, i32, i32, i32, float, float, i32, i32, [4 x i8], %"class.cv::saliency::Saliency" }>
%"class.cv::saliency::MotionSaliency.base" = type { %"class.cv::Algorithm" }
%"class.cv::Algorithm" = type { ptr }
%"class.std::vector" = type { %"struct.std::_Vector_base" }
%"struct.std::_Vector_base" = type { %"struct.std::_Vector_base<cv::Ptr<cv::Mat>, std::allocator<cv::Ptr<cv::Mat>>>::_Vector_impl" }
%"struct.std::_Vector_base<cv::Ptr<cv::Mat>, std::allocator<cv::Ptr<cv::Mat>>>::_Vector_impl" = type { %"struct.std::_Vector_base<cv::Ptr<cv::Mat>, std::allocator<cv::Ptr<cv::Mat>>>::_Vector_impl_data" }
%"struct.std::_Vector_base<cv::Ptr<cv::Mat>, std::allocator<cv::Ptr<cv::Mat>>>::_Vector_impl_data" = type { ptr, ptr, ptr }
%"class.cv::Mat" = type { i32, i32, i32, i32, ptr, ptr, ptr, ptr, ptr, ptr, %"struct.cv::MatSize", %"struct.cv::MatStep" }
%"struct.cv::MatSize" = type { ptr }
%"struct.cv::MatStep" = type { ptr, [2 x i64] }
%"class.cv::saliency::Saliency" = type { %"class.cv::Algorithm", %"class.std::__cxx11::basic_string" }
%"class.std::__cxx11::basic_string" = type { %"struct.std::__cxx11::basic_string<char>::_Alloc_hider", i64, %union.anon }
%"struct.std::__cxx11::basic_string<char>::_Alloc_hider" = type { ptr }
%union.anon = type { i64, [8 x i8] }

@.str = private unnamed_addr constant [15 x i8] c"BinWangApr2014\00", align 1

; Function Attrs: mustprogress nounwind uwtable
define linkonce_odr hidden void @_ZNSt15__new_allocatorIN2cv3PtrINS0_3MatEEEEC2Ev(ptr noundef nonnull align 1 dereferenceable(1) %0) unnamed_addr #4 comdat align 2 {
  %2 = alloca ptr, align 8
  store ptr %0, ptr %2, align 8, !tbaa !179
  ret void
}

; Function Attrs: mustprogress nounwind uwtable
define linkonce_odr hidden void @_ZNSt12_Vector_baseIN2cv3PtrINS0_3MatEEESaIS3_EE17_Vector_impl_dataC2Ev(ptr noundef nonnull align 8 dereferenceable(24) %0) unnamed_addr #4 comdat align 2 {
  %2 = alloca ptr, align 8
  store ptr %0, ptr %2, align 8, !tbaa !176
  %3 = load ptr, ptr %2, align 8
  %4 = getelementptr inbounds nuw %"struct.std::_Vector_base<cv::Ptr<cv::Mat>, std::allocator<cv::Ptr<cv::Mat>>>::_Vector_impl_data", ptr %3, i32 0, i32 0
  store ptr null, ptr %4, align 8, !tbaa !59
  %5 = getelementptr inbounds nuw %"struct.std::_Vector_base<cv::Ptr<cv::Mat>, std::allocator<cv::Ptr<cv::Mat>>>::_Vector_impl_data", ptr %3, i32 0, i32 1
  store ptr null, ptr %5, align 8, !tbaa !60
  %6 = getelementptr inbounds nuw %"struct.std::_Vector_base<cv::Ptr<cv::Mat>, std::allocator<cv::Ptr<cv::Mat>>>::_Vector_impl_data", ptr %3, i32 0, i32 2
  store ptr null, ptr %6, align 8, !tbaa !178
  ret void
}

; Function Attrs: mustprogress nounwind uwtable
define linkonce_odr hidden void @_ZNSaIN2cv3PtrINS_3MatEEEEC2Ev(ptr noundef nonnull align 1 dereferenceable(1) %0) unnamed_addr #4 comdat align 2 {
  %2 = alloca ptr, align 8
  store ptr %0, ptr %2, align 8, !tbaa !174
  %3 = load ptr, ptr %2, align 8
  call void @_ZNSt15__new_allocatorIN2cv3PtrINS0_3MatEEEEC2Ev(ptr noundef nonnull align 1 dereferenceable(1) %3) #3
  ret void
}

; Function Attrs: mustprogress nounwind uwtable
define linkonce_odr hidden noundef i64 @_ZNSt11char_traitsIcE6lengthEPKc(ptr noundef %0) #4 comdat align 2 {
  %2 = alloca ptr, align 8
  store ptr %0, ptr %2, align 8, !tbaa !58
  %3 = load ptr, ptr %2, align 8, !tbaa !58
  %4 = call i64 @strlen(ptr noundef %3) #3
  ret i64 %4
}

; Function Attrs: mustprogress nounwind uwtable
define available_externally noundef i64 @_ZNKSt7__cxx1112basic_stringIcSt11char_traitsIcESaIcEE4sizeEv(ptr noundef nonnull align 8 dereferenceable(32) %0) #4 align 2 {
  %2 = alloca ptr, align 8
  store ptr %0, ptr %2, align 8, !tbaa !56
  %3 = load ptr, ptr %2, align 8
  %4 = getelementptr inbounds nuw %"class.std::__cxx11::basic_string", ptr %3, i32 0, i32 1
  %5 = load i64, ptr %4, align 8, !tbaa !187
  ret i64 %5
}

; Function Attrs: mustprogress nounwind uwtable
define linkonce_odr hidden void @_ZNSt12_Vector_baseIN2cv3PtrINS0_3MatEEESaIS3_EE12_Vector_implC2Ev(ptr noundef nonnull align 8 dereferenceable(24) %0) unnamed_addr #4 comdat align 2 {
  %2 = alloca ptr, align 8
  store ptr %0, ptr %2, align 8, !tbaa !172
  %3 = load ptr, ptr %2, align 8
  call void @_ZNSaIN2cv3PtrINS_3MatEEEEC2Ev(ptr noundef nonnull align 1 dereferenceable(1) %3) #3
  call void @_ZNSt12_Vector_baseIN2cv3PtrINS0_3MatEEESaIS3_EE17_Vector_impl_dataC2Ev(ptr noundef nonnull align 8 dereferenceable(24) %3) #3
  ret void
}

; Function Attrs: mustprogress uwtable
define available_externally noundef nonnull align 8 dereferenceable(32) ptr @_ZNSt7__cxx1112basic_stringIcSt11char_traitsIcESaIcEE6assignEPKc(ptr noundef nonnull align 8 dereferenceable(32) %0, ptr noundef %1) #5 align 2 {
  %3 = alloca ptr, align 8
  %4 = alloca ptr, align 8
  store ptr %0, ptr %3, align 8, !tbaa !56
  store ptr %1, ptr %4, align 8, !tbaa !58
  %5 = load ptr, ptr %3, align 8
  %6 = call noundef i64 @_ZNKSt7__cxx1112basic_stringIcSt11char_traitsIcESaIcEE4sizeEv(ptr noundef nonnull align 8 dereferenceable(32) %5) #3
  %7 = load ptr, ptr %4, align 8, !tbaa !58
  %8 = load ptr, ptr %4, align 8, !tbaa !58
  %9 = call noundef i64 @_ZNSt11char_traitsIcE6lengthEPKc(ptr noundef %8)
  %10 = call noundef nonnull align 8 dereferenceable(32) ptr @_ZNSt7__cxx1112basic_stringIcSt11char_traitsIcESaIcEE10_M_replaceEmmPKcm(ptr noundef nonnull align 8 dereferenceable(32) %5, i64 noundef 0, i64 noundef %6, ptr noundef %7, i64 noundef %9)
  ret ptr %10
}

; Function Attrs: mustprogress nounwind uwtable
define linkonce_odr hidden void @_ZNSt12_Vector_baseIN2cv3PtrINS0_3MatEEESaIS3_EEC2Ev(ptr noundef nonnull align 8 dereferenceable(24) %0) unnamed_addr #4 comdat align 2 {
  %2 = alloca ptr, align 8
  store ptr %0, ptr %2, align 8, !tbaa !170
  %3 = load ptr, ptr %2, align 8
  %4 = getelementptr inbounds nuw %"struct.std::_Vector_base", ptr %3, i32 0, i32 0
  call void @_ZNSt12_Vector_baseIN2cv3PtrINS0_3MatEEESaIS3_EE12_Vector_implC2Ev(ptr noundef nonnull align 8 dereferenceable(24) %4) #3
  ret void
}

; Function Attrs: inlinehint mustprogress nounwind uwtable
define linkonce_odr hidden void @_ZN2cv8saliency14MotionSaliencyD2Ev(ptr noundef nonnull align 8 dereferenceable(8) %0, ptr noundef %1) unnamed_addr #6 comdat align 2 {
  %3 = alloca ptr, align 8
  %4 = alloca ptr, align 8
  store ptr %0, ptr %3, align 8, !tbaa !52
  store ptr %1, ptr %4, align 8, !tbaa !29
  ret void
}

; Function Attrs: mustprogress uwtable
define available_externally noundef nonnull align 8 dereferenceable(32) ptr @_ZNSt7__cxx1112basic_stringIcSt11char_traitsIcESaIcEEaSEPKc(ptr noundef nonnull align 8 dereferenceable(32) %0, ptr noundef %1) #5 align 2 {
  %3 = alloca ptr, align 8
  %4 = alloca ptr, align 8
  store ptr %0, ptr %3, align 8, !tbaa !56
  store ptr %1, ptr %4, align 8, !tbaa !58
  %5 = load ptr, ptr %3, align 8
  %6 = load ptr, ptr %4, align 8, !tbaa !58
  %7 = call noundef nonnull align 8 dereferenceable(32) ptr @_ZNSt7__cxx1112basic_stringIcSt11char_traitsIcESaIcEE6assignEPKc(ptr noundef nonnull align 8 dereferenceable(32) %5, ptr noundef %6)
  ret ptr %7
}

; Function Attrs: mustprogress nounwind uwtable
define linkonce_odr hidden void @_ZNSt6vectorIN2cv3PtrINS0_3MatEEESaIS3_EEC2Ev(ptr noundef nonnull align 8 dereferenceable(24) %0) unnamed_addr #4 comdat align 2 {
  %2 = alloca ptr, align 8
  store ptr %0, ptr %2, align 8, !tbaa !54
  %3 = load ptr, ptr %2, align 8
  call void @_ZNSt12_Vector_baseIN2cv3PtrINS0_3MatEEESaIS3_EEC2Ev(ptr noundef nonnull align 8 dereferenceable(24) %3) #3
  ret void
}

; Function Attrs: inlinehint mustprogress nounwind uwtable
define linkonce_odr hidden void @_ZN2cv8saliency14MotionSaliencyC2Ev(ptr noundef nonnull align 8 dereferenceable(8) %0, ptr noundef %1) unnamed_addr #6 comdat align 2 {
  %3 = alloca ptr, align 8
  %4 = alloca ptr, align 8
  store ptr %0, ptr %3, align 8, !tbaa !52
  store ptr %1, ptr %4, align 8, !tbaa !29
  %5 = load ptr, ptr %3, align 8
  %6 = load ptr, ptr %4, align 8
  %7 = load ptr, ptr %6, align 8
  store ptr %7, ptr %5, align 8, !tbaa !31
  %8 = getelementptr inbounds ptr, ptr %6, i64 1
  %9 = load ptr, ptr %8, align 8
  %10 = load ptr, ptr %5, align 8, !tbaa !31
  %11 = getelementptr i8, ptr %10, i64 -80
  %12 = load i64, ptr %11, align 8
  %13 = getelementptr inbounds i8, ptr %5, i64 %12
  store ptr %9, ptr %13, align 8, !tbaa !31
  %14 = getelementptr inbounds ptr, ptr %6, i64 2
  %15 = load ptr, ptr %14, align 8
  %16 = load ptr, ptr %5, align 8, !tbaa !31
  %17 = getelementptr i8, ptr %16, i64 -88
  %18 = load i64, ptr %17, align 8
  %19 = getelementptr inbounds i8, ptr %5, i64 %18
  store ptr %15, ptr %19, align 8, !tbaa !31
  ret void
}

; Function Attrs: mustprogress uwtable
define void @_ZN2cv8saliency28MotionSaliencyBinWangApr2014C2Ev(ptr noundef nonnull align 8 dereferenceable(500) %0, ptr noundef %1) unnamed_addr #5 align 2 personality ptr @__gxx_personality_v0 {
  %3 = alloca ptr, align 8
  %4 = alloca ptr, align 8
  %5 = alloca ptr, align 8
  %6 = alloca i32, align 4
  store ptr %0, ptr %3, align 8, !tbaa !3
  store ptr %1, ptr %4, align 8, !tbaa !29
  %7 = load ptr, ptr %3, align 8
  %8 = load ptr, ptr %4, align 8
  %9 = getelementptr inbounds ptr, ptr %8, i64 1
  call void @_ZN2cv8saliency14MotionSaliencyC2Ev(ptr noundef nonnull align 8 dereferenceable(8) %7, ptr noundef %9) #3
  %10 = load ptr, ptr %8, align 8
  store ptr %10, ptr %7, align 8, !tbaa !31
  %11 = getelementptr inbounds ptr, ptr %8, i64 4
  %12 = load ptr, ptr %11, align 8
  %13 = load ptr, ptr %7, align 8, !tbaa !31
  %14 = getelementptr i8, ptr %13, i64 -80
  %15 = load i64, ptr %14, align 8
  %16 = getelementptr inbounds i8, ptr %7, i64 %15
  store ptr %12, ptr %16, align 8, !tbaa !31
  %17 = getelementptr inbounds ptr, ptr %8, i64 5
  %18 = load ptr, ptr %17, align 8
  %19 = load ptr, ptr %7, align 8, !tbaa !31
  %20 = getelementptr i8, ptr %19, i64 -88
  %21 = load i64, ptr %20, align 8
  %22 = getelementptr inbounds i8, ptr %7, i64 %21
  store ptr %18, ptr %22, align 8, !tbaa !31
  %23 = getelementptr inbounds nuw %"class.cv::saliency::MotionSaliencyBinWangApr2014", ptr %7, i32 0, i32 1
  call void @_ZNSt6vectorIN2cv3PtrINS0_3MatEEESaIS3_EEC2Ev(ptr noundef nonnull align 8 dereferenceable(24) %23) #3
  %24 = getelementptr inbounds nuw %"class.cv::saliency::MotionSaliencyBinWangApr2014", ptr %7, i32 0, i32 2
  call void @_ZN2cv3MatC1Ev(ptr noundef nonnull align 8 dereferenceable(96) %24) #3
  %25 = getelementptr inbounds nuw %"class.cv::saliency::MotionSaliencyBinWangApr2014", ptr %7, i32 0, i32 3
  call void @_ZN2cv3MatC1Ev(ptr noundef nonnull align 8 dereferenceable(96) %25) #3
  %26 = getelementptr inbounds nuw %"class.cv::saliency::MotionSaliencyBinWangApr2014", ptr %7, i32 0, i32 4
  call void @_ZN2cv3MatC1Ev(ptr noundef nonnull align 8 dereferenceable(96) %26) #3
  %27 = getelementptr inbounds nuw %"class.cv::saliency::MotionSaliencyBinWangApr2014", ptr %7, i32 0, i32 5
  call void @_ZN2cv3MatC1Ev(ptr noundef nonnull align 8 dereferenceable(96) %27) #3
  %28 = getelementptr inbounds nuw %"class.cv::saliency::MotionSaliencyBinWangApr2014", ptr %7, i32 0, i32 9
  store i32 2, ptr %28, align 4, !tbaa !33
  %29 = getelementptr inbounds nuw %"class.cv::saliency::MotionSaliencyBinWangApr2014", ptr %7, i32 0, i32 12
  store i32 3, ptr %29, align 8, !tbaa !34
  %30 = getelementptr inbounds nuw %"class.cv::saliency::MotionSaliencyBinWangApr2014", ptr %7, i32 0, i32 13
  store i32 4, ptr %30, align 4, !tbaa !35
  %31 = getelementptr inbounds nuw %"class.cv::saliency::MotionSaliencyBinWangApr2014", ptr %7, i32 0, i32 14
  store float 0x3F847AE140000000, ptr %31, align 8, !tbaa !36
  %32 = getelementptr inbounds nuw %"class.cv::saliency::MotionSaliencyBinWangApr2014", ptr %7, i32 0, i32 15
  store i32 1000, ptr %32, align 4, !tbaa !37
  %33 = getelementptr inbounds nuw %"class.cv::saliency::MotionSaliencyBinWangApr2014", ptr %7, i32 0, i32 16
  store i32 800, ptr %33, align 8, !tbaa !38
  %34 = getelementptr inbounds nuw %"class.cv::saliency::MotionSaliencyBinWangApr2014", ptr %7, i32 0, i32 17
  store i32 250, ptr %34, align 4, !tbaa !39
  %35 = getelementptr inbounds nuw %"class.cv::saliency::MotionSaliencyBinWangApr2014", ptr %7, i32 0, i32 18
  store i32 200, ptr %35, align 8, !tbaa !40
  %36 = getelementptr inbounds nuw %"class.cv::saliency::MotionSaliencyBinWangApr2014", ptr %7, i32 0, i32 19
  store i32 3, ptr %36, align 4, !tbaa !41
  %37 = getelementptr inbounds nuw %"class.cv::saliency::MotionSaliencyBinWangApr2014", ptr %7, i32 0, i32 7
  store i8 1, ptr %37, align 1, !tbaa !42
  %38 = getelementptr inbounds nuw %"class.cv::saliency::MotionSaliencyBinWangApr2014", ptr %7, i32 0, i32 20
  store i8 6, ptr %38, align 8, !tbaa !43
  %39 = getelementptr inbounds nuw %"class.cv::saliency::MotionSaliencyBinWangApr2014", ptr %7, i32 0, i32 22
  store i32 80, ptr %39, align 4, !tbaa !44
  %40 = getelementptr inbounds nuw %"class.cv::saliency::MotionSaliencyBinWangApr2014", ptr %7, i32 0, i32 23
  store i32 20, ptr %40, align 8, !tbaa !45
  %41 = getelementptr inbounds nuw %"class.cv::saliency::MotionSaliencyBinWangApr2014", ptr %7, i32 0, i32 24
  store i32 15, ptr %41, align 4, !tbaa !46
  %42 = getelementptr inbounds nuw %"class.cv::saliency::MotionSaliencyBinWangApr2014", ptr %7, i32 0, i32 25
  store i32 5, ptr %42, align 8, !tbaa !47
  %43 = getelementptr inbounds nuw %"class.cv::saliency::MotionSaliencyBinWangApr2014", ptr %7, i32 0, i32 26
  store float 2.000000e+01, ptr %43, align 4, !tbaa !48
  %44 = getelementptr inbounds nuw %"class.cv::saliency::MotionSaliencyBinWangApr2014", ptr %7, i32 0, i32 27
  store float 1.250000e-01, ptr %44, align 8, !tbaa !49
  %45 = getelementptr inbounds nuw %"class.cv::saliency::MotionSaliencyBinWangApr2014", ptr %7, i32 0, i32 28
  store i32 18, ptr %45, align 4, !tbaa !50
  %46 = getelementptr inbounds nuw %"class.cv::saliency::MotionSaliencyBinWangApr2014", ptr %7, i32 0, i32 29
  store i32 80, ptr %46, align 8, !tbaa !51
  %47 = load ptr, ptr %7, align 8, !tbaa !31
  %48 = getelementptr i8, ptr %47, i64 -80
  %49 = load i64, ptr %48, align 8
  %50 = getelementptr inbounds i8, ptr %7, i64 %49
  %51 = getelementptr inbounds nuw %"class.cv::saliency::Saliency", ptr %50, i32 0, i32 1
  %52 = invoke noundef nonnull align 8 dereferenceable(32) ptr @_ZNSt7__cxx1112basic_stringIcSt11char_traitsIcESaIcEEaSEPKc(ptr noundef nonnull align 8 dereferenceable(32) %51, ptr noundef @.str)
          to label %53 unwind label %54

53:                                               ; preds = %2
  ret void

54:                                               ; preds = %2
  %55 = landingpad { ptr, i32 }
          cleanup
  %56 = extractvalue { ptr, i32 } %55, 0
  store ptr %56, ptr %5, align 8
  %57 = extractvalue { ptr, i32 } %55, 1
  store i32 %57, ptr %6, align 4
  call void @_ZN2cv3MatD1Ev(ptr noundef nonnull align 8 dereferenceable(96) %27) #3
  call void @_ZN2cv3MatD1Ev(ptr noundef nonnull align 8 dereferenceable(96) %26) #3
  call void @_ZN2cv3MatD1Ev(ptr noundef nonnull align 8 dereferenceable(96) %25) #3
  call void @_ZN2cv3MatD1Ev(ptr noundef nonnull align 8 dereferenceable(96) %24) #3
  call void @_ZNSt6vectorIN2cv3PtrINS0_3MatEEESaIS3_EED2Ev(ptr noundef nonnull align 8 dereferenceable(24) %23) #3
  %58 = getelementptr inbounds ptr, ptr %8, i64 1
  call void @_ZN2cv8saliency14MotionSaliencyD2Ev(ptr noundef nonnull align 8 dereferenceable(8) %7, ptr noundef %58) #3
  br label %59

59:                                               ; preds = %54
  %60 = load ptr, ptr %5, align 8
  %61 = load i32, ptr %6, align 4
  %62 = insertvalue { ptr, i32 } poison, ptr %60, 0
  %63 = insertvalue { ptr, i32 } %62, i32 %61, 1
  resume { ptr, i32 } %63
}