; Function Attrs: mustprogress uwtable
define void @_ZN2cv8saliency28MotionSaliencyBinWangApr2014C2Ev(ptr noundef nonnull align 8 dereferenceable(500) initializes((0, 32)) %0, ptr noundef readonly captures(none) %1) unnamed_addr #4 align 2 personality ptr @__gxx_personality_v0 {
  %3 = getelementptr inbounds nuw i8, ptr %1, i64 8
  %4 = load ptr, ptr %3, align 8
  store ptr %4, ptr %0, align 8, !tbaa !26
  %5 = getelementptr inbounds nuw i8, ptr %1, i64 16
  %6 = load ptr, ptr %5, align 8
  %7 = getelementptr i8, ptr %4, i64 -80
  %8 = load i64, ptr %7, align 8
  %9 = getelementptr inbounds i8, ptr %0, i64 %8
  store ptr %6, ptr %9, align 8, !tbaa !26
  %10 = getelementptr inbounds nuw i8, ptr %1, i64 24
  %11 = load ptr, ptr %10, align 8
  %12 = load ptr, ptr %0, align 8, !tbaa !26
  %13 = getelementptr i8, ptr %12, i64 -88
  %14 = load i64, ptr %13, align 8
  %15 = getelementptr inbounds i8, ptr %0, i64 %14
  store ptr %11, ptr %15, align 8, !tbaa !26
  %16 = load ptr, ptr %1, align 8
  store ptr %16, ptr %0, align 8, !tbaa !26
  %17 = getelementptr inbounds nuw i8, ptr %1, i64 32
  %18 = load ptr, ptr %17, align 8
  %19 = getelementptr i8, ptr %16, i64 -80
  %20 = load i64, ptr %19, align 8
  %21 = getelementptr inbounds i8, ptr %0, i64 %20
  store ptr %18, ptr %21, align 8, !tbaa !26
  %22 = getelementptr inbounds nuw i8, ptr %1, i64 40
  %23 = load ptr, ptr %22, align 8
  %24 = load ptr, ptr %0, align 8, !tbaa !26
  %25 = getelementptr i8, ptr %24, i64 -88
  %26 = load i64, ptr %25, align 8
  %27 = getelementptr inbounds i8, ptr %0, i64 %26
  store ptr %23, ptr %27, align 8, !tbaa !26
  %28 = getelementptr inbounds nuw i8, ptr %0, i64 8
  tail call void @llvm.memset.p0.i64(ptr noundef nonnull align 8 dereferenceable(24) %28, i8 0, i64 24, i1 false)
  %29 = getelementptr inbounds nuw i8, ptr %0, i64 32
  tail call void @_ZN2cv3MatC1Ev(ptr noundef nonnull align 8 dereferenceable(96) %29) #24
  %30 = getelementptr inbounds nuw i8, ptr %0, i64 128
  tail call void @_ZN2cv3MatC1Ev(ptr noundef nonnull align 8 dereferenceable(96) %30) #24
  %31 = getelementptr inbounds nuw i8, ptr %0, i64 224
  tail call void @_ZN2cv3MatC1Ev(ptr noundef nonnull align 8 dereferenceable(96) %31) #24
  %32 = getelementptr inbounds nuw i8, ptr %0, i64 320
  tail call void @_ZN2cv3MatC1Ev(ptr noundef nonnull align 8 dereferenceable(96) %32) #24
  %33 = getelementptr inbounds nuw i8, ptr %0, i64 420
  store i32 2, ptr %33, align 4, !tbaa !28
  %34 = getelementptr inbounds nuw i8, ptr %0, i64 432
  store i32 3, ptr %34, align 8, !tbaa !29
  %35 = getelementptr inbounds nuw i8, ptr %0, i64 436
  store i32 4, ptr %35, align 4, !tbaa !30
  %36 = getelementptr inbounds nuw i8, ptr %0, i64 440
  store float 0x3F847AE140000000, ptr %36, align 8, !tbaa !31
  %37 = getelementptr inbounds nuw i8, ptr %0, i64 444
  store i32 1000, ptr %37, align 4, !tbaa !32
  %38 = getelementptr inbounds nuw i8, ptr %0, i64 448
  store i32 800, ptr %38, align 8, !tbaa !33
  %39 = getelementptr inbounds nuw i8, ptr %0, i64 452
  store i32 250, ptr %39, align 4, !tbaa !34
  %40 = getelementptr inbounds nuw i8, ptr %0, i64 456
  store i32 200, ptr %40, align 8, !tbaa !35
  %41 = getelementptr inbounds nuw i8, ptr %0, i64 460
  store i32 3, ptr %41, align 4, !tbaa !36
  %42 = getelementptr inbounds nuw i8, ptr %0, i64 417
  store i8 1, ptr %42, align 1, !tbaa !37
  %43 = getelementptr inbounds nuw i8, ptr %0, i64 464
  store i8 6, ptr %43, align 8, !tbaa !38
  %44 = getelementptr inbounds nuw i8, ptr %0, i64 468
  store i32 80, ptr %44, align 4, !tbaa !39
  %45 = getelementptr inbounds nuw i8, ptr %0, i64 472
  store i32 20, ptr %45, align 8, !tbaa !40
  %46 = getelementptr inbounds nuw i8, ptr %0, i64 476
  store i32 15, ptr %46, align 4, !tbaa !41
  %47 = getelementptr inbounds nuw i8, ptr %0, i64 480
  store i32 5, ptr %47, align 8, !tbaa !42
  %48 = getelementptr inbounds nuw i8, ptr %0, i64 484
  store float 2.000000e+01, ptr %48, align 4, !tbaa !43
  %49 = getelementptr inbounds nuw i8, ptr %0, i64 488
  store float 1.250000e-01, ptr %49, align 8, !tbaa !44
  %50 = getelementptr inbounds nuw i8, ptr %0, i64 492
  store i32 18, ptr %50, align 4, !tbaa !45
  %51 = getelementptr inbounds nuw i8, ptr %0, i64 496
  store i32 80, ptr %51, align 8, !tbaa !46
  %52 = load ptr, ptr %0, align 8, !tbaa !26
  %53 = getelementptr i8, ptr %52, i64 -80
  %54 = load i64, ptr %53, align 8
  %55 = getelementptr inbounds i8, ptr %0, i64 %54
  %56 = getelementptr inbounds nuw i8, ptr %55, i64 8
  %57 = getelementptr inbounds nuw i8, ptr %55, i64 16
  %58 = load i64, ptr %57, align 8, !tbaa !47
  %59 = invoke noundef nonnull align 8 dereferenceable(32) ptr @_ZNSt7__cxx1112basic_stringIcSt11char_traitsIcESaIcEE10_M_replaceEmmPKcm(ptr noundef nonnull align 8 dereferenceable(32) %56, i64 noundef 0, i64 noundef %58, ptr noundef nonnull @.str, i64 noundef 14)
          to label %_ZNSt7__cxx1112basic_stringIcSt11char_traitsIcESaIcEEaSEPKc.exit unwind label %60

_ZNSt7__cxx1112basic_stringIcSt11char_traitsIcESaIcEEaSEPKc.exit: ; preds = %2
  ret void

60:                                               ; preds = %2
  %61 = landingpad { ptr, i32 }
          cleanup
  tail call void @_ZN2cv3MatD1Ev(ptr noundef nonnull align 8 dereferenceable(96) %32) #24
  tail call void @_ZN2cv3MatD1Ev(ptr noundef nonnull align 8 dereferenceable(96) %31) #24
  tail call void @_ZN2cv3MatD1Ev(ptr noundef nonnull align 8 dereferenceable(96) %30) #24
  tail call void @_ZN2cv3MatD1Ev(ptr noundef nonnull align 8 dereferenceable(96) %29) #24
  tail call void @_ZNSt6vectorIN2cv3PtrINS0_3MatEEESaIS3_EED2Ev(ptr noundef nonnull align 8 dereferenceable(24) %28) #24
  resume { ptr, i32 } %61
}